target datalayout = "e-m:e-p270:32:32-p271:32:32-p272:64:64-i64:64-i128:128-f80:128-n8:16:32:64-S128"
target triple = "x86_64-pc-linux-gnu"

%struct.SDL_EVDEV_keyboard_state = type { i32, i8, i32, ptr, [9 x i8], i8, i32, ptr, i32, i8, i8, i8, i8, i8, [128 x i8], i32, ptr, ptr, ptr, ptr }

; Function Attrs: nounwind uwtable
define internal void @k_ascii(ptr noundef %0, i8 noundef zeroext %1, i8 noundef signext %2) #0 {
  %4 = alloca ptr, align 8
  %5 = alloca i8, align 1
  %6 = alloca i8, align 1
  %7 = alloca i32, align 4
  %8 = alloca i32, align 4
  store ptr %0, ptr %4, align 8
  store i8 %1, ptr %5, align 1
  store i8 %2, ptr %6, align 1
  call void @llvm.lifetime.start.p0(i64 4, ptr %7) #7
  %9 = load i8, ptr %6, align 1
  %10 = icmp ne i8 %9, 0
  br i1 %10, label %11, label %12

11:                                               ; preds = %3
  store i32 1, ptr %8, align 4
  br label %44

12:                                               ; preds = %3
  %13 = load i8, ptr %5, align 1
  %14 = zext i8 %13 to i32
  %15 = icmp slt i32 %14, 10
  br i1 %15, label %16, label %17

16:                                               ; preds = %12
  store i32 10, ptr %7, align 4
  br label %22

17:                                               ; preds = %12
  %18 = load i8, ptr %5, align 1
  %19 = zext i8 %18 to i32
  %20 = sub nsw i32 %19, 10
  %21 = trunc i32 %20 to i8
  store i8 %21, ptr %5, align 1
  store i32 16, ptr %7, align 4
  br label %22

22:                                               ; preds = %17, %16
  %23 = load ptr, ptr %4, align 8
  %24 = getelementptr inbounds nuw %struct.SDL_EVDEV_keyboard_state, ptr %23, i32 0, i32 6
  %25 = load i32, ptr %24, align 4
  %26 = icmp eq i32 %25, -1
  br i1 %26, label %27, label %32

27:                                               ; preds = %22
  %28 = load i8, ptr %5, align 1
  %29 = zext i8 %28 to i32
  %30 = load ptr, ptr %4, align 8
  %31 = getelementptr inbounds nuw %struct.SDL_EVDEV_keyboard_state, ptr %30, i32 0, i32 6
  store i32 %29, ptr %31, align 4
  br label %43

32:                                               ; preds = %22
  %33 = load ptr, ptr %4, align 8
  %34 = getelementptr inbounds nuw %struct.SDL_EVDEV_keyboard_state, ptr %33, i32 0, i32 6
  %35 = load i32, ptr %34, align 4
  %36 = load i32, ptr %7, align 4
  %37 = mul nsw i32 %35, %36
  %38 = load i8, ptr %5, align 1
  %39 = zext i8 %38 to i32
  %40 = add nsw i32 %37, %39
  %41 = load ptr, ptr %4, align 8
  %42 = getelementptr inbounds nuw %struct.SDL_EVDEV_keyboard_state, ptr %41, i32 0, i32 6
  store i32 %40, ptr %42, align 4
  br label %43

43:                                               ; preds = %32, %27
  store i32 0, ptr %8, align 4
  br label %44

44:                                               ; preds = %43, %11
  call void @llvm.lifetime.end.p0(i64 4, ptr %7) #7
  %45 = load i32, ptr %8, align 4
  switch i32 %45, label %47 [
    i32 0, label %46
    i32 1, label %46
  ]

46:                                               ; preds = %44, %44
  ret void

47:                                               ; preds = %44
  unreachable
}