; Function Attrs: mustprogress nofree norecurse nosync nounwind willreturn memory(argmem: readwrite) uwtable
define internal void @k_ascii(ptr noundef captures(none) %0, i8 noundef zeroext %1, i8 noundef signext %2) #8 {
  %.not = icmp eq i8 %2, 0
  br i1 %.not, label %4, label %13

4:                                                ; preds = %3
  %5 = icmp ult i8 %1, 10
  %6 = add i8 %1, -10
  %.09 = select i1 %5, i8 %1, i8 %6
  %.0 = select i1 %5, i32 10, i32 16
  %7 = getelementptr inbounds nuw i8, ptr %0, i64 36
  %8 = load i32, ptr %7, align 4
  %9 = icmp eq i32 %8, -1
  %10 = mul nsw i32 %8, %.0
  %11 = zext i8 %.09 to i32
  %12 = select i1 %9, i32 0, i32 %10
  %storemerge = add nsw i32 %12, %11
  store i32 %storemerge, ptr %7, align 4
  br label %13

13:                                               ; preds = %3, %4
  ret void
}